target datalayout = "e-m:e-p270:32:32-p271:32:32-p272:64:64-i64:64-i128:128-f80:128-n8:16:32:64-S128"
target triple = "x86_64-pc-linux-gnu"

%struct.quic_info_data = type { i32, i32, ptr, i16, i32, i32, i32, %struct.quic_ciphers, %struct.quic_ciphers, %struct.quic_ciphers, %struct.quic_ciphers, %struct.quic_ciphers, %struct.quic_pp_state, %struct.quic_pp_state, [3 x i64], [3 x i64], ptr, ptr, %struct.quic_cid_item, %struct.quic_cid_item, %struct.quic_cid, ptr, ptr, ptr, ptr, ptr, ptr, ptr, ptr, ptr, ptr }
%struct.quic_ciphers = type { %struct.quic_hp_cipher, %struct.quic_pp_cipher }
%struct.quic_hp_cipher = type { ptr }
%struct.quic_pp_cipher = type { ptr, [12 x i8] }
%struct.quic_pp_state = type { ptr, [2 x %struct.quic_pp_cipher], %struct.quic_hp_cipher, i64, i8 }
%struct.quic_cid_item = type { ptr, %struct.quic_cid }
%struct.quic_cid = type { i8, [20 x i8], [16 x i8], i8, i64, i64 }
%struct.quic_packet_info = type { ptr, i64, %struct.quic_decrypt_result, i8, i8, i8, i8 }
%struct.quic_decrypt_result = type { ptr, ptr, i32 }

; Function Attrs: null_pointer_is_valid sspstrong uwtable
define internal void @process_quic_stream(ptr noundef %0, i32 noundef %1, ptr noundef %2, ptr noundef %3, ptr noundef %4, ptr noundef %5, ptr noundef %6) #0 {
  %8 = alloca ptr, align 8
  %9 = alloca i32, align 4
  %10 = alloca ptr, align 8
  %11 = alloca ptr, align 8
  %12 = alloca ptr, align 8
  %13 = alloca ptr, align 8
  %14 = alloca ptr, align 8
  %15 = alloca ptr, align 8
  %16 = alloca ptr, align 8
  %17 = alloca ptr, align 8
  %18 = alloca ptr, align 8
  store ptr %0, ptr %8, align 8
  store i32 %1, ptr %9, align 4
  store ptr %2, ptr %10, align 8
  store ptr %3, ptr %11, align 8
  store ptr %4, ptr %12, align 8
  store ptr %5, ptr %13, align 8
  store ptr %6, ptr %14, align 8
  %19 = load ptr, ptr %14, align 8
  %20 = getelementptr inbounds nuw %struct.quic_packet_info, ptr %19, i32 0, i32 5
  %21 = load i8, ptr %20, align 2
  %22 = zext i8 %21 to i32
  %23 = icmp ne i32 %22, 1
  br i1 %23, label %24, label %45

24:                                               ; preds = %7
  %25 = load ptr, ptr %12, align 8
  %26 = getelementptr inbounds nuw %struct.quic_info_data, ptr %25, i32 0, i32 21
  %27 = load ptr, ptr %26, align 8
  %28 = icmp ne ptr %27, null
  br i1 %28, label %29, label %45

29:                                               ; preds = %24
  call void @llvm.lifetime.start.p0(i64 8, ptr %15) #19
  %30 = load ptr, ptr %8, align 8
  %31 = load i32, ptr %9, align 4
  %32 = call ptr @tvb_new_subset_remaining(ptr noundef %30, i32 noundef %31)
  store ptr %32, ptr %15, align 8
  call void @llvm.lifetime.start.p0(i64 8, ptr %16) #19
  %33 = load ptr, ptr %11, align 8
  %34 = call ptr @proto_tree_get_parent_tree(ptr noundef %33)
  store ptr %34, ptr %16, align 8
  %35 = load ptr, ptr %16, align 8
  %36 = call ptr @proto_tree_get_parent_tree(ptr noundef %35)
  store ptr %36, ptr %16, align 8
  %37 = load ptr, ptr %12, align 8
  %38 = getelementptr inbounds nuw %struct.quic_info_data, ptr %37, i32 0, i32 21
  %39 = load ptr, ptr %38, align 8
  %40 = load ptr, ptr %15, align 8
  %41 = load ptr, ptr %10, align 8
  %42 = load ptr, ptr %16, align 8
  %43 = load ptr, ptr %13, align 8
  %44 = call i32 @call_dissector_with_data(ptr noundef %39, ptr noundef %40, ptr noundef %41, ptr noundef %42, ptr noundef %43)
  call void @llvm.lifetime.end.p0(i64 8, ptr %16) #19
  call void @llvm.lifetime.end.p0(i64 8, ptr %15) #19
  br label %73

45:                                               ; preds = %24, %7
  %46 = load ptr, ptr %14, align 8
  %47 = getelementptr inbounds nuw %struct.quic_packet_info, ptr %46, i32 0, i32 5
  %48 = load i8, ptr %47, align 2
  %49 = zext i8 %48 to i32
  %50 = icmp eq i32 %49, 1
  br i1 %50, label %51, label %72

51:                                               ; preds = %45
  %52 = load ptr, ptr %12, align 8
  %53 = getelementptr inbounds nuw %struct.quic_info_data, ptr %52, i32 0, i32 22
  %54 = load ptr, ptr %53, align 8
  %55 = icmp ne ptr %54, null
  br i1 %55, label %56, label %72

56:                                               ; preds = %51
  call void @llvm.lifetime.start.p0(i64 8, ptr %17) #19
  %57 = load ptr, ptr %8, align 8
  %58 = load i32, ptr %9, align 4
  %59 = call ptr @tvb_new_subset_remaining(ptr noundef %57, i32 noundef %58)
  store ptr %59, ptr %17, align 8
  call void @llvm.lifetime.start.p0(i64 8, ptr %18) #19
  %60 = load ptr, ptr %11, align 8
  %61 = call ptr @proto_tree_get_parent_tree(ptr noundef %60)
  store ptr %61, ptr %18, align 8
  %62 = load ptr, ptr %18, align 8
  %63 = call ptr @proto_tree_get_parent_tree(ptr noundef %62)
  store ptr %63, ptr %18, align 8
  %64 = load ptr, ptr %12, align 8
  %65 = getelementptr inbounds nuw %struct.quic_info_data, ptr %64, i32 0, i32 22
  %66 = load ptr, ptr %65, align 8
  %67 = load ptr, ptr %17, align 8
  %68 = load ptr, ptr %10, align 8
  %69 = load ptr, ptr %18, align 8
  %70 = load ptr, ptr %13, align 8
  %71 = call i32 @call_dissector_with_data(ptr noundef %66, ptr noundef %67, ptr noundef %68, ptr noundef %69, ptr noundef %70)
  call void @llvm.lifetime.end.p0(i64 8, ptr %18) #19
  call void @llvm.lifetime.end.p0(i64 8, ptr %17) #19
  br label %72

72:                                               ; preds = %56, %51, %45
  br label %73

73:                                               ; preds = %72, %29
  ret void
}