; Function Attrs: null_pointer_is_valid sspstrong uwtable
define internal fastcc void @process_quic_stream(ptr noundef %0, i32 noundef %1, ptr noundef %2, ptr noundef %3, ptr noundef nonnull readonly captures(none) %4, ptr noundef %5, i8 %.42.val) unnamed_addr #0 {
  %.not = icmp eq i8 %.42.val, 1
  br i1 %.not, label %16, label %7

7:                                                ; preds = %6
  %8 = getelementptr inbounds nuw i8, ptr %4, i64 600
  %9 = load ptr, ptr %8, align 8
  %.not21 = icmp eq ptr %9, null
  br i1 %.not21, label %25, label %10

10:                                               ; preds = %7
  %11 = tail call ptr @tvb_new_subset_remaining(ptr noundef %0, i32 noundef %1)
  %12 = tail call ptr @proto_tree_get_parent_tree(ptr noundef %3)
  %13 = tail call ptr @proto_tree_get_parent_tree(ptr noundef %12)
  %14 = load ptr, ptr %8, align 8
  %15 = tail call i32 @call_dissector_with_data(ptr noundef %14, ptr noundef %11, ptr noundef %2, ptr noundef %13, ptr noundef %5)
  br label %25

16:                                               ; preds = %6
  %17 = getelementptr inbounds nuw i8, ptr %4, i64 608
  %18 = load ptr, ptr %17, align 8
  %.not22 = icmp eq ptr %18, null
  br i1 %.not22, label %25, label %19

19:                                               ; preds = %16
  %20 = tail call ptr @tvb_new_subset_remaining(ptr noundef %0, i32 noundef %1)
  %21 = tail call ptr @proto_tree_get_parent_tree(ptr noundef %3)
  %22 = tail call ptr @proto_tree_get_parent_tree(ptr noundef %21)
  %23 = load ptr, ptr %17, align 8
  %24 = tail call i32 @call_dissector_with_data(ptr noundef %23, ptr noundef %20, ptr noundef %2, ptr noundef %22, ptr noundef %5)
  br label %25

25:                                               ; preds = %7, %16, %19, %10
  ret void
}